target datalayout = "e-m:e-p270:32:32-p271:32:32-p272:64:64-i64:64-i128:128-f80:128-n8:16:32:64-S128"
target triple = "x86_64-unknown-linux-gnu"

%struct.QTailQLink = type { ptr, ptr }
%struct.GraphLockableMainloop = type {}
%struct.BlockDriverState = type { i32, i8, i8, i8, i8, i8, ptr, ptr, ptr, %struct.anon, i8, [4096 x i8], [4096 x i8], [4096 x i8], [16 x i8], ptr, [4096 x i8], %struct.BlockLimits, i32, i32, i32, i32, [32 x i8], %union.anon.0, %union.anon.1, %union.anon.2, i32, [16 x %struct.anon.3], ptr, %struct.anon.4, ptr, ptr, %struct.anon.5, ptr, ptr, i32, ptr, i64, i64, %struct.QemuMutex, %struct.anon.6, %struct.Stat64, i32, i32, i32, i32, i32, i32, %struct.QemuMutex, %struct.anon.7, %struct.CoQueue, i8, i32, i8, %struct.CoMutex, ptr, ptr }
%struct.anon = type { ptr }
%struct.BlockLimits = type { i32, i64, i32, i64, i32, i32, i32, i64, i32, i64, i64, i32, i8, i32, i32, i32, i32, i32, i32, i32 }
%union.anon.0 = type { %struct.QTailQLink }
%union.anon.1 = type { %struct.QTailQLink }
%union.anon.2 = type { %struct.QTailQLink }
%struct.anon.3 = type { ptr }
%struct.anon.4 = type { ptr }
%struct.anon.5 = type { ptr }
%struct.anon.6 = type { ptr }
%struct.Stat64 = type { i64 }
%struct.QemuMutex = type { %union.pthread_mutex_t, i8 }
%union.pthread_mutex_t = type { %struct.__pthread_mutex_s }
%struct.__pthread_mutex_s = type { i32, i32, i32, i32, i32, i16, i16, %struct.__pthread_internal_list }
%struct.__pthread_internal_list = type { ptr, ptr }
%struct.anon.7 = type { ptr }
%struct.CoQueue = type { %struct.anon.8 }
%struct.anon.8 = type { ptr, ptr }
%struct.CoMutex = type { i32, ptr, %struct.anon.9, %struct.anon.9, i32, i32, ptr }
%struct.anon.9 = type { ptr }
%struct.BlockDriver = type { ptr, i32, i8, i8, i8, i8, i8, i8, ptr, ptr, ptr, ptr, ptr, ptr, ptr, ptr, ptr, ptr, ptr, ptr, ptr, ptr, ptr, ptr, ptr, ptr, ptr, ptr, ptr, ptr, ptr, ptr, ptr, ptr, ptr, ptr, ptr, ptr, ptr, ptr, ptr, ptr, ptr, ptr, ptr, ptr, ptr, ptr, ptr, ptr, ptr, ptr, ptr, ptr, ptr, ptr, ptr, ptr, ptr, ptr, ptr, %struct.anon.10, ptr, ptr, ptr, ptr, ptr, ptr, ptr, ptr, ptr, ptr, ptr, ptr, ptr, ptr, ptr, ptr, ptr, ptr, ptr, ptr, ptr, ptr, ptr, ptr, ptr, ptr, ptr, ptr, ptr, ptr, ptr, ptr, ptr, ptr, ptr, ptr, ptr, ptr, ptr, ptr, ptr, ptr, ptr, ptr, ptr, ptr, ptr, ptr, ptr }
%struct.anon.10 = type { ptr, ptr }
%struct._GList = type { ptr, ptr, ptr }

@.str.6 = private unnamed_addr constant [22 x i8] c"qemu_in_main_thread()\00", align 1
@.str.7 = private unnamed_addr constant [25 x i8] c"../qemu/block/snapshot.c\00", align 1
@__PRETTY_FUNCTION__.bdrv_can_snapshot = private unnamed_addr constant [42 x i8] c"int bdrv_can_snapshot(BlockDriverState *)\00", align 1
@__PRETTY_FUNCTION__.bdrv_all_can_snapshot = private unnamed_addr constant [56 x i8] c"_Bool bdrv_all_can_snapshot(_Bool, strList *, Error **)\00", align 1
@__func__.bdrv_all_can_snapshot = private unnamed_addr constant [22 x i8] c"bdrv_all_can_snapshot\00", align 1
@.str.21 = private unnamed_addr constant [55 x i8] c"Device '%s' is writable but does not support snapshots\00", align 1
@__PRETTY_FUNCTION__.bdrv_all_snapshots_includes_bs = private unnamed_addr constant [57 x i8] c"_Bool bdrv_all_snapshots_includes_bs(BlockDriverState *)\00", align 1

; Function Attrs: nounwind sspstrong uwtable
define internal void @graph_lockable_auto_unlock_mainloop(ptr noundef %x) #0 {
entry:
  %x.addr = alloca ptr, align 8
  store ptr %x, ptr %x.addr, align 8
  call void @bdrv_graph_rdunlock_main_loop()
  ret void
}

; Function Attrs: nounwind sspstrong uwtable
define internal void @glib_autoptr_clear_GList(ptr noundef %_ptr) #0 {
entry:
  %_ptr.addr = alloca ptr, align 8
  store ptr %_ptr, ptr %_ptr.addr, align 8
  %0 = load ptr, ptr %_ptr.addr, align 8
  %tobool = icmp ne ptr %0, null
  br i1 %tobool, label %if.then, label %if.end

if.then:                                          ; preds = %entry
  %1 = load ptr, ptr %_ptr.addr, align 8
  call void @g_list_free(ptr noundef %1)
  br label %if.end

if.end:                                           ; preds = %if.then, %entry
  ret void
}

; Function Attrs: nounwind sspstrong uwtable
define internal void @glib_autoptr_clear_GraphLockableMainloop(ptr noundef %_ptr) #0 {
entry:
  %_ptr.addr = alloca ptr, align 8
  store ptr %_ptr, ptr %_ptr.addr, align 8
  %0 = load ptr, ptr %_ptr.addr, align 8
  %tobool = icmp ne ptr %0, null
  br i1 %tobool, label %if.then, label %if.end

if.then:                                          ; preds = %entry
  %1 = load ptr, ptr %_ptr.addr, align 8
  call void @graph_lockable_auto_unlock_mainloop(ptr noundef %1)
  br label %if.end

if.end:                                           ; preds = %if.then, %entry
  ret void
}

; Function Attrs: nounwind sspstrong uwtable
define internal void @glib_autoptr_cleanup_GList(ptr noundef %_ptr) #0 {
entry:
  %_ptr.addr = alloca ptr, align 8
  store ptr %_ptr, ptr %_ptr.addr, align 8
  %0 = load ptr, ptr %_ptr.addr, align 8
  %1 = load ptr, ptr %0, align 8
  call void @glib_autoptr_clear_GList(ptr noundef %1)
  ret void
}

; Function Attrs: nounwind sspstrong uwtable
define internal void @glib_autoptr_cleanup_GraphLockableMainloop(ptr noundef %_ptr) #0 {
entry:
  %_ptr.addr = alloca ptr, align 8
  store ptr %_ptr, ptr %_ptr.addr, align 8
  %0 = load ptr, ptr %_ptr.addr, align 8
  %1 = load ptr, ptr %0, align 8
  call void @glib_autoptr_clear_GraphLockableMainloop(ptr noundef %1)
  ret void
}

; Function Attrs: nounwind sspstrong uwtable
define dso_local i32 @bdrv_can_snapshot(ptr noundef %bs) #0 {
entry:
  %retval = alloca i32, align 4
  %bs.addr = alloca ptr, align 8
  %drv = alloca ptr, align 8
  %fallback_bs = alloca ptr, align 8
  store ptr %bs, ptr %bs.addr, align 8
  %0 = load ptr, ptr %bs.addr, align 8
  %drv1 = getelementptr inbounds %struct.BlockDriverState, ptr %0, i32 0, i32 6
  %1 = load ptr, ptr %drv1, align 8
  store ptr %1, ptr %drv, align 8
  br label %do.body

do.body:                                          ; preds = %entry
  %call = call zeroext i1 @qemu_in_main_thread()
  br i1 %call, label %if.then, label %if.else

if.then:                                          ; preds = %do.body
  br label %if.end

if.else:                                          ; preds = %do.body
  call void @__assert_fail(ptr noundef @.str.6, ptr noundef @.str.7, i32 noundef 199, ptr noundef @__PRETTY_FUNCTION__.bdrv_can_snapshot) #6
  unreachable

if.end:                                           ; preds = %if.then
  br label %do.end

do.end:                                           ; preds = %if.end
  %2 = load ptr, ptr %drv, align 8
  %tobool = icmp ne ptr %2, null
  br i1 %tobool, label %lor.lhs.false, label %if.then5

lor.lhs.false:                                    ; preds = %do.end
  %3 = load ptr, ptr %bs.addr, align 8
  %call2 = call zeroext i1 @bdrv_is_inserted(ptr noundef %3)
  br i1 %call2, label %lor.lhs.false3, label %if.then5

lor.lhs.false3:                                   ; preds = %lor.lhs.false
  %4 = load ptr, ptr %bs.addr, align 8
  %call4 = call zeroext i1 @bdrv_is_read_only(ptr noundef %4)
  br i1 %call4, label %if.then5, label %if.end6

if.then5:                                         ; preds = %lor.lhs.false3, %lor.lhs.false, %do.end
  store i32 0, ptr %retval, align 4
  br label %return

if.end6:                                          ; preds = %lor.lhs.false3
  %5 = load ptr, ptr %drv, align 8
  %bdrv_snapshot_create = getelementptr inbounds %struct.BlockDriver, ptr %5, i32 0, i32 35
  %6 = load ptr, ptr %bdrv_snapshot_create, align 8
  %tobool7 = icmp ne ptr %6, null
  br i1 %tobool7, label %if.end14, label %if.then8

if.then8:                                         ; preds = %if.end6
  %7 = load ptr, ptr %bs.addr, align 8
  %call9 = call ptr @bdrv_snapshot_fallback(ptr noundef %7)
  store ptr %call9, ptr %fallback_bs, align 8
  %8 = load ptr, ptr %fallback_bs, align 8
  %tobool10 = icmp ne ptr %8, null
  br i1 %tobool10, label %if.then11, label %if.end13

if.then11:                                        ; preds = %if.then8
  %9 = load ptr, ptr %fallback_bs, align 8
  %call12 = call i32 @bdrv_can_snapshot(ptr noundef %9)
  store i32 %call12, ptr %retval, align 4
  br label %return

if.end13:                                         ; preds = %if.then8
  store i32 0, ptr %retval, align 4
  br label %return

if.end14:                                         ; preds = %if.end6
  store i32 1, ptr %retval, align 4
  br label %return

return:                                           ; preds = %if.end14, %if.end13, %if.then11, %if.then5
  %10 = load i32, ptr %retval, align 4
  ret i32 %10
}

; Function Attrs: nounwind sspstrong uwtable
define internal zeroext i1 @bdrv_all_snapshots_includes_bs(ptr noundef %bs) #0 {
entry:
  %retval = alloca i1, align 1
  %bs.addr = alloca ptr, align 8
  store ptr %bs, ptr %bs.addr, align 8
  br label %do.body

do.body:                                          ; preds = %entry
  %call = call zeroext i1 @qemu_in_main_thread()
  br i1 %call, label %if.then, label %if.else

if.then:                                          ; preds = %do.body
  br label %if.end

if.else:                                          ; preds = %do.body
  call void @__assert_fail(ptr noundef @.str.6, ptr noundef @.str.7, i32 noundef 516, ptr noundef @__PRETTY_FUNCTION__.bdrv_all_snapshots_includes_bs) #6
  unreachable

if.end:                                           ; preds = %if.then
  br label %do.end

do.end:                                           ; preds = %if.end
  call void @assert_bdrv_graph_readable()
  %0 = load ptr, ptr %bs.addr, align 8
  %call1 = call zeroext i1 @bdrv_is_inserted(ptr noundef %0)
  br i1 %call1, label %lor.lhs.false, label %if.then3

lor.lhs.false:                                    ; preds = %do.end
  %1 = load ptr, ptr %bs.addr, align 8
  %call2 = call zeroext i1 @bdrv_is_read_only(ptr noundef %1)
  br i1 %call2, label %if.then3, label %if.end4

if.then3:                                         ; preds = %lor.lhs.false, %do.end
  store i1 false, ptr %retval, align 1
  br label %return

if.end4:                                          ; preds = %lor.lhs.false
  %2 = load ptr, ptr %bs.addr, align 8
  %call5 = call zeroext i1 @bdrv_has_blk(ptr noundef %2)
  br i1 %call5, label %lor.end, label %lor.rhs

lor.rhs:                                          ; preds = %if.end4
  %3 = load ptr, ptr %bs.addr, align 8
  %parents = getelementptr inbounds %struct.BlockDriverState, ptr %3, i32 0, i32 32
  %lh_first = getelementptr inbounds %struct.anon.5, ptr %parents, i32 0, i32 0
  %4 = load ptr, ptr %lh_first, align 8
  %cmp = icmp eq ptr %4, null
  br label %lor.end

lor.end:                                          ; preds = %lor.rhs, %if.end4
  %5 = phi i1 [ true, %if.end4 ], [ %cmp, %lor.rhs ]
  store i1 %5, ptr %retval, align 1
  br label %return

return:                                           ; preds = %lor.end, %if.then3
  %6 = load i1, ptr %retval, align 1
  ret i1 %6
}

; Function Attrs: nounwind sspstrong uwtable
define internal ptr @graph_lockable_auto_lock_mainloop(ptr noundef %x) #0 {
entry:
  %x.addr = alloca ptr, align 8
  store ptr %x, ptr %x.addr, align 8
  call void @bdrv_graph_rdlock_main_loop()
  %0 = load ptr, ptr %x.addr, align 8
  ret ptr %0
}

; Function Attrs: nounwind sspstrong uwtable
define dso_local zeroext i1 @bdrv_all_can_snapshot(i1 noundef zeroext %has_devices, ptr noundef %devices, ptr noundef %errp) #0 {
entry:
  %retval = alloca i1, align 1
  %has_devices.addr = alloca i8, align 1
  %devices.addr = alloca ptr, align 8
  %errp.addr = alloca ptr, align 8
  %bdrvs = alloca ptr, align 8
  %iterbdrvs = alloca ptr, align 8
  %graph_lockable_auto8 = alloca ptr, align 8
  %.compoundliteral = alloca %struct.GraphLockableMainloop, align 1
  %cleanup.dest.slot = alloca i32, align 4
  %bs = alloca ptr, align 8
  %ctx = alloca ptr, align 8
  %ok = alloca i8, align 1
  %frombool = zext i1 %has_devices to i8
  store i8 %frombool, ptr %has_devices.addr, align 1
  store ptr %devices, ptr %devices.addr, align 8
  store ptr %errp, ptr %errp.addr, align 8
  store ptr null, ptr %bdrvs, align 8
  br label %do.body

do.body:                                          ; preds = %entry
  %call = call zeroext i1 @qemu_in_main_thread()
  br i1 %call, label %if.then, label %if.else

if.then:                                          ; preds = %do.body
  br label %if.end

if.else:                                          ; preds = %do.body
  call void @__assert_fail(ptr noundef @.str.6, ptr noundef @.str.7, i32 noundef 538, ptr noundef @__PRETTY_FUNCTION__.bdrv_all_can_snapshot) #6
  unreachable

if.end:                                           ; preds = %if.then
  br label %do.cond

do.cond:                                          ; preds = %if.end
  br label %do.end

do.end:                                           ; preds = %do.cond
  %call1 = call ptr @graph_lockable_auto_lock_mainloop(ptr noundef %.compoundliteral)
  store ptr %call1, ptr %graph_lockable_auto8, align 8
  %0 = load i8, ptr %has_devices.addr, align 1
  %tobool = trunc i8 %0 to i1
  %1 = load ptr, ptr %devices.addr, align 8
  %2 = load ptr, ptr %errp.addr, align 8
  %call2 = call i32 @bdrv_all_get_snapshot_devices(i1 noundef zeroext %tobool, ptr noundef %1, ptr noundef %bdrvs, ptr noundef %2)
  %cmp = icmp slt i32 %call2, 0
  br i1 %cmp, label %if.then3, label %if.end4

if.then3:                                         ; preds = %do.end
  store i1 false, ptr %retval, align 1
  store i32 1, ptr %cleanup.dest.slot, align 4
  br label %cleanup

if.end4:                                          ; preds = %do.end
  %3 = load ptr, ptr %bdrvs, align 8
  store ptr %3, ptr %iterbdrvs, align 8
  br label %while.cond

while.cond:                                       ; preds = %if.end17, %if.end4
  %4 = load ptr, ptr %iterbdrvs, align 8
  %tobool5 = icmp ne ptr %4, null
  br i1 %tobool5, label %while.body, label %while.end

while.body:                                       ; preds = %while.cond
  %5 = load ptr, ptr %iterbdrvs, align 8
  %data = getelementptr inbounds %struct._GList, ptr %5, i32 0, i32 0
  %6 = load ptr, ptr %data, align 8
  store ptr %6, ptr %bs, align 8
  %7 = load ptr, ptr %bs, align 8
  %call6 = call ptr @bdrv_get_aio_context(ptr noundef %7)
  store ptr %call6, ptr %ctx, align 8
  store i8 1, ptr %ok, align 1
  %8 = load ptr, ptr %ctx, align 8
  call void @aio_context_acquire(ptr noundef %8)
  %9 = load ptr, ptr %devices.addr, align 8
  %tobool7 = icmp ne ptr %9, null
  br i1 %tobool7, label %if.then9, label %lor.lhs.false

lor.lhs.false:                                    ; preds = %while.body
  %10 = load ptr, ptr %bs, align 8
  %call8 = call zeroext i1 @bdrv_all_snapshots_includes_bs(ptr noundef %10)
  br i1 %call8, label %if.then9, label %if.end13

if.then9:                                         ; preds = %lor.lhs.false, %while.body
  %11 = load ptr, ptr %bs, align 8
  %call10 = call i32 @bdrv_can_snapshot(ptr noundef %11)
  %tobool11 = icmp ne i32 %call10, 0
  %frombool12 = zext i1 %tobool11 to i8
  store i8 %frombool12, ptr %ok, align 1
  br label %if.end13

if.end13:                                         ; preds = %if.then9, %lor.lhs.false
  %12 = load ptr, ptr %ctx, align 8
  call void @aio_context_release(ptr noundef %12)
  %13 = load i8, ptr %ok, align 1
  %tobool14 = trunc i8 %13 to i1
  br i1 %tobool14, label %if.end17, label %if.then15

if.then15:                                        ; preds = %if.end13
  %14 = load ptr, ptr %errp.addr, align 8
  %15 = load ptr, ptr %bs, align 8
  %call16 = call ptr @bdrv_get_device_or_node_name(ptr noundef %15)
  call void (ptr, ptr, i32, ptr, ptr, ...) @error_setg_internal(ptr noundef %14, ptr noundef @.str.7, i32 noundef 558, ptr noundef @__func__.bdrv_all_can_snapshot, ptr noundef @.str.21, ptr noundef %call16)
  store i1 false, ptr %retval, align 1
  store i32 1, ptr %cleanup.dest.slot, align 4
  br label %cleanup

if.end17:                                         ; preds = %if.end13
  %16 = load ptr, ptr %iterbdrvs, align 8
  %next = getelementptr inbounds %struct._GList, ptr %16, i32 0, i32 1
  %17 = load ptr, ptr %next, align 8
  store ptr %17, ptr %iterbdrvs, align 8
  br label %while.cond, !llvm.loop !11

while.end:                                        ; preds = %while.cond
  store i1 true, ptr %retval, align 1
  store i32 1, ptr %cleanup.dest.slot, align 4
  br label %cleanup

cleanup:                                          ; preds = %while.end, %if.then15, %if.then3
  call void @glib_autoptr_cleanup_GraphLockableMainloop(ptr noundef %graph_lockable_auto8)
  call void @glib_autoptr_cleanup_GList(ptr noundef %bdrvs)
  %18 = load i1, ptr %retval, align 1
  ret i1 %18
}