; Function Attrs: nounwind sspstrong uwtable
define dso_local noundef zeroext i1 @bdrv_all_can_snapshot(i1 noundef zeroext %has_devices, ptr noundef %devices, ptr noundef %errp) local_unnamed_addr #0 {
entry:
  %bdrvs = alloca ptr, align 8
  store ptr null, ptr %bdrvs, align 8
  %call = tail call zeroext i1 @qemu_in_main_thread() #6
  br i1 %call, label %do.end, label %if.else

if.else:                                          ; preds = %entry
  tail call void @__assert_fail(ptr noundef nonnull @.str.6, ptr noundef nonnull @.str.7, i32 noundef 538, ptr noundef nonnull @__PRETTY_FUNCTION__.bdrv_all_can_snapshot) #7
  unreachable

do.end:                                           ; preds = %entry
  tail call void @bdrv_graph_rdlock_main_loop() #6
  %call2 = call fastcc i32 @bdrv_all_get_snapshot_devices(i1 noundef zeroext %has_devices, ptr noundef %devices, ptr noundef %bdrvs, ptr noundef %errp)
  %cmp = icmp slt i32 %call2, 0
  %bdrvs.val.pre = load ptr, ptr %bdrvs, align 8
  br i1 %cmp, label %glib_autoptr_cleanup_GraphLockableMainloop.exit, label %while.cond.preheader

while.cond.preheader:                             ; preds = %do.end
  %tobool5.not26 = icmp eq ptr %bdrvs.val.pre, null
  br i1 %tobool5.not26, label %glib_autoptr_cleanup_GraphLockableMainloop.exit.thread, label %while.body.lr.ph

glib_autoptr_cleanup_GraphLockableMainloop.exit.thread: ; preds = %while.cond.preheader
  tail call void @bdrv_graph_rdunlock_main_loop() #6
  br label %glib_autoptr_cleanup_GList.exit

while.body.lr.ph:                                 ; preds = %while.cond.preheader
  %tobool7.not = icmp eq ptr %devices, null
  br i1 %tobool7.not, label %while.body.us, label %while.body

while.body.us:                                    ; preds = %while.body.lr.ph, %if.end17.us
  %iterbdrvs.027.us = phi ptr [ %iterbdrvs.0.us, %if.end17.us ], [ %bdrvs.val.pre, %while.body.lr.ph ]
  %0 = load ptr, ptr %iterbdrvs.027.us, align 8
  %call6.us = tail call ptr @bdrv_get_aio_context(ptr noundef %0) #6
  tail call void @aio_context_acquire(ptr noundef %call6.us) #6
  %call.i.us = tail call zeroext i1 @qemu_in_main_thread() #6
  br i1 %call.i.us, label %do.end.i.us, label %if.else.i

do.end.i.us:                                      ; preds = %while.body.us
  tail call void @assert_bdrv_graph_readable() #6
  %call1.i.us = tail call zeroext i1 @bdrv_is_inserted(ptr noundef %0) #6
  br i1 %call1.i.us, label %lor.lhs.false.i.us, label %if.end17.us

lor.lhs.false.i.us:                               ; preds = %do.end.i.us
  %call2.i.us = tail call zeroext i1 @bdrv_is_read_only(ptr noundef %0) #6
  br i1 %call2.i.us, label %if.end17.us, label %if.end4.i.us

if.end4.i.us:                                     ; preds = %lor.lhs.false.i.us
  %call5.i.us = tail call zeroext i1 @bdrv_has_blk(ptr noundef %0) #6
  br i1 %call5.i.us, label %tailrecurse.i.us.preheader, label %bdrv_all_snapshots_includes_bs.exit.us

bdrv_all_snapshots_includes_bs.exit.us:           ; preds = %if.end4.i.us
  %parents.i.us = getelementptr inbounds nuw i8, ptr %0, i64 16848
  %1 = load ptr, ptr %parents.i.us, align 8
  %cmp.i.us = icmp eq ptr %1, null
  br i1 %cmp.i.us, label %tailrecurse.i.us.preheader, label %if.end17.us

tailrecurse.i.us.preheader:                       ; preds = %bdrv_all_snapshots_includes_bs.exit.us, %if.end4.i.us
  br label %tailrecurse.i.us

tailrecurse.i.us:                                 ; preds = %tailrecurse.i.us.preheader, %if.then8.i.us
  %bs.tr.i.us = phi ptr [ %call9.i.us, %if.then8.i.us ], [ %0, %tailrecurse.i.us.preheader ]
  %drv1.i.us = getelementptr inbounds nuw i8, ptr %bs.tr.i.us, i64 16
  %2 = load ptr, ptr %drv1.i.us, align 8
  %call.i9.us = tail call zeroext i1 @qemu_in_main_thread() #6
  br i1 %call.i9.us, label %do.end.i11.us, label %if.else.i10

do.end.i11.us:                                    ; preds = %tailrecurse.i.us
  %tobool.not.i.us = icmp eq ptr %2, null
  br i1 %tobool.not.i.us, label %if.then15, label %lor.lhs.false.i12.us

lor.lhs.false.i12.us:                             ; preds = %do.end.i11.us
  %call2.i13.us = tail call zeroext i1 @bdrv_is_inserted(ptr noundef nonnull %bs.tr.i.us) #6
  br i1 %call2.i13.us, label %lor.lhs.false3.i.us, label %if.then15

lor.lhs.false3.i.us:                              ; preds = %lor.lhs.false.i12.us
  %call4.i.us = tail call zeroext i1 @bdrv_is_read_only(ptr noundef nonnull %bs.tr.i.us) #6
  br i1 %call4.i.us, label %if.then15, label %if.end6.i.us

if.end6.i.us:                                     ; preds = %lor.lhs.false3.i.us
  %bdrv_snapshot_create.i.us = getelementptr inbounds nuw i8, ptr %2, i64 240
  %3 = load ptr, ptr %bdrv_snapshot_create.i.us, align 8
  %tobool7.not.i.us = icmp eq ptr %3, null
  br i1 %tobool7.not.i.us, label %if.then8.i.us, label %if.end17.us

if.then8.i.us:                                    ; preds = %if.end6.i.us
  %call9.i.us = tail call fastcc ptr @bdrv_snapshot_fallback(ptr noundef nonnull %bs.tr.i.us)
  %tobool10.not.i.us = icmp eq ptr %call9.i.us, null
  br i1 %tobool10.not.i.us, label %if.then15, label %tailrecurse.i.us

if.end17.us:                                      ; preds = %if.end6.i.us, %do.end.i.us, %lor.lhs.false.i.us, %bdrv_all_snapshots_includes_bs.exit.us
  tail call void @aio_context_release(ptr noundef %call6.us) #6
  %next.us = getelementptr inbounds nuw i8, ptr %iterbdrvs.027.us, i64 8
  %iterbdrvs.0.us = load ptr, ptr %next.us, align 8
  %tobool5.not.us = icmp eq ptr %iterbdrvs.0.us, null
  br i1 %tobool5.not.us, label %glib_autoptr_cleanup_GraphLockableMainloop.exit, label %while.body.us, !llvm.loop !11

while.body:                                       ; preds = %while.body.lr.ph, %bdrv_can_snapshot.exit
  %iterbdrvs.027 = phi ptr [ %iterbdrvs.0, %bdrv_can_snapshot.exit ], [ %bdrvs.val.pre, %while.body.lr.ph ]
  %4 = load ptr, ptr %iterbdrvs.027, align 8
  %call6 = tail call ptr @bdrv_get_aio_context(ptr noundef %4) #6
  tail call void @aio_context_acquire(ptr noundef %call6) #6
  br label %tailrecurse.i

if.else.i:                                        ; preds = %while.body.us
  tail call void @__assert_fail(ptr noundef nonnull @.str.6, ptr noundef nonnull @.str.7, i32 noundef 516, ptr noundef nonnull @__PRETTY_FUNCTION__.bdrv_all_snapshots_includes_bs) #7
  unreachable

tailrecurse.i:                                    ; preds = %if.then8.i, %while.body
  %bs.tr.i = phi ptr [ %4, %while.body ], [ %call9.i, %if.then8.i ]
  %drv1.i = getelementptr inbounds nuw i8, ptr %bs.tr.i, i64 16
  %5 = load ptr, ptr %drv1.i, align 8
  %call.i9 = tail call zeroext i1 @qemu_in_main_thread() #6
  br i1 %call.i9, label %do.end.i11, label %if.else.i10

if.else.i10:                                      ; preds = %tailrecurse.i, %tailrecurse.i.us
  tail call void @__assert_fail(ptr noundef nonnull @.str.6, ptr noundef nonnull @.str.7, i32 noundef 199, ptr noundef nonnull @__PRETTY_FUNCTION__.bdrv_can_snapshot) #7
  unreachable

do.end.i11:                                       ; preds = %tailrecurse.i
  %tobool.not.i = icmp eq ptr %5, null
  br i1 %tobool.not.i, label %if.then15, label %lor.lhs.false.i12

lor.lhs.false.i12:                                ; preds = %do.end.i11
  %call2.i13 = tail call zeroext i1 @bdrv_is_inserted(ptr noundef nonnull %bs.tr.i) #6
  br i1 %call2.i13, label %lor.lhs.false3.i, label %if.then15

lor.lhs.false3.i:                                 ; preds = %lor.lhs.false.i12
  %call4.i = tail call zeroext i1 @bdrv_is_read_only(ptr noundef nonnull %bs.tr.i) #6
  br i1 %call4.i, label %if.then15, label %if.end6.i

if.end6.i:                                        ; preds = %lor.lhs.false3.i
  %bdrv_snapshot_create.i = getelementptr inbounds nuw i8, ptr %5, i64 240
  %6 = load ptr, ptr %bdrv_snapshot_create.i, align 8
  %tobool7.not.i = icmp eq ptr %6, null
  br i1 %tobool7.not.i, label %if.then8.i, label %bdrv_can_snapshot.exit

if.then8.i:                                       ; preds = %if.end6.i
  %call9.i = tail call fastcc ptr @bdrv_snapshot_fallback(ptr noundef nonnull %bs.tr.i)
  %tobool10.not.i = icmp eq ptr %call9.i, null
  br i1 %tobool10.not.i, label %if.then15, label %tailrecurse.i

bdrv_can_snapshot.exit:                           ; preds = %if.end6.i
  tail call void @aio_context_release(ptr noundef %call6) #6
  %next = getelementptr inbounds nuw i8, ptr %iterbdrvs.027, i64 8
  %iterbdrvs.0 = load ptr, ptr %next, align 8
  %tobool5.not = icmp eq ptr %iterbdrvs.0, null
  br i1 %tobool5.not, label %glib_autoptr_cleanup_GraphLockableMainloop.exit, label %while.body, !llvm.loop !11

if.then15:                                        ; preds = %if.then8.i, %do.end.i11, %lor.lhs.false.i12, %lor.lhs.false3.i, %do.end.i11.us, %lor.lhs.false.i12.us, %lor.lhs.false3.i.us, %if.then8.i.us
  %.us-phi = phi ptr [ %0, %if.then8.i.us ], [ %0, %lor.lhs.false3.i.us ], [ %0, %lor.lhs.false.i12.us ], [ %0, %do.end.i11.us ], [ %4, %lor.lhs.false3.i ], [ %4, %lor.lhs.false.i12 ], [ %4, %do.end.i11 ], [ %4, %if.then8.i ]
  %.us-phi28 = phi ptr [ %call6.us, %if.then8.i.us ], [ %call6.us, %lor.lhs.false3.i.us ], [ %call6.us, %lor.lhs.false.i12.us ], [ %call6.us, %do.end.i11.us ], [ %call6, %lor.lhs.false3.i ], [ %call6, %lor.lhs.false.i12 ], [ %call6, %do.end.i11 ], [ %call6, %if.then8.i ]
  tail call void @aio_context_release(ptr noundef %.us-phi28) #6
  %call16 = tail call ptr @bdrv_get_device_or_node_name(ptr noundef %.us-phi) #6
  tail call void (ptr, ptr, i32, ptr, ptr, ...) @error_setg_internal(ptr noundef %errp, ptr noundef nonnull @.str.7, i32 noundef 558, ptr noundef nonnull @__func__.bdrv_all_can_snapshot, ptr noundef nonnull @.str.21, ptr noundef %call16) #6
  br label %glib_autoptr_cleanup_GraphLockableMainloop.exit

glib_autoptr_cleanup_GraphLockableMainloop.exit:  ; preds = %bdrv_can_snapshot.exit, %if.end17.us, %do.end, %if.then15
  %retval.0 = phi i1 [ false, %if.then15 ], [ false, %do.end ], [ true, %if.end17.us ], [ true, %bdrv_can_snapshot.exit ]
  tail call void @bdrv_graph_rdunlock_main_loop() #6
  %tobool.not.i.i15 = icmp eq ptr %bdrvs.val.pre, null
  br i1 %tobool.not.i.i15, label %glib_autoptr_cleanup_GList.exit, label %if.then.i.i16

if.then.i.i16:                                    ; preds = %glib_autoptr_cleanup_GraphLockableMainloop.exit
  tail call void @g_list_free(ptr noundef nonnull %bdrvs.val.pre) #6
  br label %glib_autoptr_cleanup_GList.exit

glib_autoptr_cleanup_GList.exit:                  ; preds = %glib_autoptr_cleanup_GraphLockableMainloop.exit.thread, %glib_autoptr_cleanup_GraphLockableMainloop.exit, %if.then.i.i16
  %retval.044 = phi i1 [ true, %glib_autoptr_cleanup_GraphLockableMainloop.exit.thread ], [ %retval.0, %glib_autoptr_cleanup_GraphLockableMainloop.exit ], [ %retval.0, %if.then.i.i16 ]
  ret i1 %retval.044
}